; Function Attrs: mustprogress nofree norecurse nosync nounwind willreturn memory(none) uwtable
define internal fastcc noundef range(i64 0, 4294967296) i64 @_ZN4llvm10AArch64_AML22encodeLogicalImmediateEmj(i64 noundef %0) unnamed_addr #4 {
  %2 = add i64 %0, 1
  %or.cond.i = icmp ult i64 %2, 2
  br i1 %or.cond.i, label %_ZN4llvm10AArch64_AML23processLogicalImmediateEmjRm.exit, label %.preheader.i

.preheader.i:                                     ; preds = %1, %11
  %.044.i = phi i32 [ %3, %11 ], [ 64, %1 ]
  %3 = lshr i32 %.044.i, 1
  %4 = zext nneg i32 %3 to i64
  %notmask.i = shl nsw i64 -1, %4
  %5 = xor i64 %notmask.i, -1
  %6 = lshr i64 %0, %4
  %7 = xor i64 %6, %0
  %8 = and i64 %7, %5
  %.not.i = icmp eq i64 %8, 0
  br i1 %.not.i, label %11, label %9

9:                                                ; preds = %.preheader.i
  %10 = and i32 %.044.i, 126
  br label %.loopexit.i

11:                                               ; preds = %.preheader.i
  %12 = icmp ugt i32 %.044.i, 5
  br i1 %12, label %.preheader.i, label %.loopexit.i, !llvm.loop !126

.loopexit.i:                                      ; preds = %11, %9
  %.1.i = phi i32 [ %10, %9 ], [ %3, %11 ]
  %.neg57.i = add nsw i32 %.1.i, -64
  %13 = sub nsw i32 64, %.1.i
  %14 = zext nneg i32 %13 to i64
  %15 = lshr i64 -1, %14
  %16 = and i64 %15, %0
  %.not.i.i = icmp eq i64 %16, 0
  br i1 %.not.i.i, label %_ZN4llvm16isShiftedMask_64Em.exit.thread.i, label %_ZN4llvm16isShiftedMask_64Em.exit.i

_ZN4llvm16isShiftedMask_64Em.exit.i:              ; preds = %.loopexit.i
  %17 = add i64 %16, -1
  %18 = or i64 %17, %16
  %19 = add i64 %18, 1
  %20 = and i64 %19, %18
  %21 = icmp eq i64 %20, 0
  br i1 %21, label %22, label %_ZN4llvm16isShiftedMask_64Em.exit.thread.i

22:                                               ; preds = %_ZN4llvm16isShiftedMask_64Em.exit.i
  %23 = tail call range(i64 0, 65) i64 @llvm.cttz.i64(i64 %16, i1 true)
  %24 = trunc nuw nsw i64 %23 to i32
  %25 = lshr i64 %16, %23
  %26 = xor i64 %25, -1
  %27 = tail call range(i64 0, 65) i64 @llvm.cttz.i64(i64 %26, i1 false)
  %28 = trunc nuw nsw i64 %27 to i32
  br label %43

_ZN4llvm16isShiftedMask_64Em.exit.thread.i:       ; preds = %_ZN4llvm16isShiftedMask_64Em.exit.i, %.loopexit.i
  %.not53.i = xor i64 %0, -1
  %29 = and i64 %15, %.not53.i
  %.not.i51.i = icmp eq i64 %29, 0
  br i1 %.not.i51.i, label %_ZN4llvm10AArch64_AML23processLogicalImmediateEmjRm.exit, label %_ZN4llvm16isShiftedMask_64Em.exit52.i

_ZN4llvm16isShiftedMask_64Em.exit52.i:            ; preds = %_ZN4llvm16isShiftedMask_64Em.exit.thread.i
  %30 = add i64 %29, -1
  %31 = or i64 %30, %29
  %32 = add i64 %31, 1
  %33 = and i64 %32, %31
  %34 = icmp eq i64 %33, 0
  br i1 %34, label %35, label %_ZN4llvm10AArch64_AML23processLogicalImmediateEmjRm.exit

35:                                               ; preds = %_ZN4llvm16isShiftedMask_64Em.exit52.i
  %36 = tail call range(i64 0, 65) i64 @llvm.ctlz.i64(i64 %29, i1 true)
  %37 = trunc nuw nsw i64 %36 to i32
  %38 = sub nuw nsw i32 64, %37
  %39 = tail call range(i64 0, 65) i64 @llvm.cttz.i64(i64 %29, i1 true)
  %40 = trunc nuw nsw i64 %39 to i32
  %41 = add nsw i32 %.neg57.i, %40
  %42 = add nsw i32 %41, %37
  br label %43

43:                                               ; preds = %35, %22
  %.046.i = phi i32 [ %24, %22 ], [ %38, %35 ]
  %.045.i = phi i32 [ %28, %22 ], [ %42, %35 ]
  %44 = sub nsw i32 %.1.i, %.046.i
  %45 = add nuw nsw i32 %.1.i, 67108863
  %46 = and i32 %44, %45
  %.neg.i = mul nsw i32 %.1.i, -2
  %47 = add nsw i32 %.045.i, -1
  %48 = or i32 %47, %.neg.i
  %49 = shl i32 %48, 6
  %50 = and i32 %49, 4096
  %51 = xor i32 %50, 4096
  %52 = shl i32 %46, 6
  %53 = and i32 %48, 63
  %54 = or disjoint i32 %53, %52
  %55 = or i32 %51, %54
  %56 = zext i32 %55 to i64
  br label %_ZN4llvm10AArch64_AML23processLogicalImmediateEmjRm.exit

_ZN4llvm10AArch64_AML23processLogicalImmediateEmjRm.exit: ; preds = %1, %_ZN4llvm16isShiftedMask_64Em.exit.thread.i, %_ZN4llvm16isShiftedMask_64Em.exit52.i, %43
  %.0 = phi i64 [ 0, %1 ], [ 0, %_ZN4llvm16isShiftedMask_64Em.exit.thread.i ], [ %56, %43 ], [ 0, %_ZN4llvm16isShiftedMask_64Em.exit52.i ]
  ret i64 %.0
}